(lp0
(lp1
a(lp2
a(lp3
a(lp4
a(lp5
I0
aa(lp6
I1
aa(lp7
I4
aa(lp8
I3
aa(lp9
I7
aa(lp10
I0
aa(lp11
I8
aa(lp12
I4
aa(lp13
I0
aa(lp14
I4
aa(lp15
I13
aa(lp16
I14
aa(lp17
I1
aa(lp18
I12
aa(lp19
I9
aa(lp20
I7
aa(lp21
I18
aa(lp22
I3
aa(lp23
I21
aa(lp24
I12
aa(lp25
I23
aa(lp26
I18
aa(lp27
I21
aa(lp28
I5
aa(lp29
I17
aa(lp30
a(lp31
I29
aa(lp32
I0
aa(lp33
I30
aa(lp34
I27
aa(lp35
I17
aa(lp36
I21
aa(lp37
I2
aa(lp38
I6
aa(lp39
I15
aa(lp40
I35
aa(lp41
I4
aa(lp42
I14
aa(lp43
I4
aa(lp44
I3
aa(lp45
I8
aa(lp46
I0
aa(lp47
I29
aa(lp48
I16
aa(lp49
I47
aa(lp50
I18
aa(lp51
I9
aa(lp52
I37
aa(lp53
I18
aa(lp54
I47
aa(lp55
I5
aa(lp56
I32
aa(lp57
I35
aa(lp58
I24
aa(lp59
I23
aa(lp60
I49
aa(lp61
I24
aa(lp62
I51
aa(lp63
I43
aa(lp64
I53
aa(lp65
I23
aa(lp66
I20
aa(lp67
I2
aa(lp68
I14
aa(lp69
I37
aa(lp70
I14
aa(lp71
I68
aa(lp72
I34
aa(lp73
I4
aa(lp74
I9
aa(lp75
I43
aa(lp76
I71
aa(lp77
I30
aa(lp78
I64
aa(lp79
I4
aa(lp80
I59
aa(lp81
I3
aa(lp82
I70
aa(lp83
I11
aa(lp84
I14
aa(lp85
I68
aa(lp86
I23
aa(lp87
I83
aa(lp88
I26
aa(lp89
I28
aa(lp90
I4
aa(lp91
I46
aa(lp92
I36
aa(lp93
I70
aa(lp94
I4
aa(lp95
I10
aa(lp96
I76
aa(lp97
I31
aa(lp98
I23
aa(lp99
I28
aa(lp100
I37
aa(lp101
I39
aa(lp102
I21
aa(lp103
I29
aa(lp104
I83
aa(lp105
I93
aa(lp106
I12
aa(lp107
I40
aa(lp108
I63
aa(lp109
I107
aa(lp110
I37
aa(lp111
I87
aa(lp112
I52
aa(lp113
I65
aa(lp114
I77
aa(lp115
I94
aa(lp116
I69
aa(lp117
I36
aa(lp118
I66
aa(lp119
I56
aa(lp120
I106
aa(lp121
I86
aa(lp122
I106
aa(lp123
I95
aa(lp124
I8
aa(lp125
I113
aa(lp126
I49
aa(lp127
I18
aa(lp128
I70
aa(lp129
I74
aa(lp130
I12
aa(lp131
I53
aa(lp132
I53
aa(lp133
I104
aa(lp134
I120
aa(lp135
I74
aa(lp136
I35
aa(lp137
I92
aa(lp138
I60
aa(lp139
I28
aa(lp140
I24
aa(lp141
I17
aa(lp142
I39
aa(lp143
I120
aa(lp144
I114
aa(lp145
I17
aa(lp146
I130
aa(lp147
I60
aa(lp148
I36
aa(lp149
I36
aa(lp150
I4
aa(lp151
I28
aa(lp152
I7
aa(lp153
I26
aa(lp154
I53
aa(lp155
I112
aa(lp156
I97
aa(lp157
I3
aa(lp158
I117
aa(lp159
I132
aa(lp160
I17
aa(lp161
I98
aa(lp162
I69
aa(lp163
I22
aa(lp164
I66
aa(lp165
I163
aa(lp166
I63
aa(lp167
I16
aa(lp168
I78
aa(lp169
I113
aa(lp170
I151
aa(lp171
I169
aa(lp172
I156
aa(lp173
I37
aa(lp174
I37
aa(lp175
I104
aa(lp176
I84
aa(lp177
I139
aa(lp178
I142
aa(lp179
I177
aa(lp180
I3
aa(lp181
I148
aa(lp182
I19
aa(lp183
I60
aa(lp184
I79
aa(lp185
I20
aa(lp186
I180
aa(lp187
I4
aa(lp188
I35
aa(lp189
I72
aa(lp190
I77
aa(lp191
I4
aa(lp192
I140
aa(lp193
I139
aa(lp194
I190
aa(lp195
I100
aa(lp196
I47
aa(lp197
I9
aa(lp198
I46
aa(lp199
I184
aa(lp200
I84
aa.